; ModuleID = '32/2026.c'
source_filename = "32/2026.c"
target datalayout = "e-m:e-p270:32:32-p271:32:32-p272:64:64-i64:64-f80:128-n8:16:32:64-S128"
target triple = "x86_64-pc-linux-gnu"

@.str = private unnamed_addr constant [3 x i8] c"%d\00", align 1
@.str.1 = private unnamed_addr constant [3 x i8] c"%s\00", align 1
@.str.2 = private unnamed_addr constant [4 x i8] c"%s\0A\00", align 1

; Function Attrs: noinline nounwind uwtable
define dso_local i32 @main() #0 {
  %1 = alloca i32, align 4
  %2 = alloca [100 x [100 x i8]], align 16
  %3 = alloca [100 x [100 x i8]], align 16
  %4 = alloca [100 x [101 x i8]], align 16
  %5 = alloca i32, align 4
  %6 = alloca i32, align 4
  %7 = alloca i32, align 4
  %8 = alloca i32, align 4
  %9 = alloca i32, align 4
  store i32 0, i32* %1, align 4
  %10 = call i32 (i8*, ...) @__isoc99_scanf(i8* getelementptr inbounds ([3 x i8], [3 x i8]* @.str, i64 0, i64 0), i32* %6)
  store i32 0, i32* %5, align 4
  br label %11

11:                                               ; preds = %24, %0
  %12 = load i32, i32* %5, align 4
  %13 = load i32, i32* %6, align 4
  %14 = icmp slt i32 %12, %13
  br i1 %14, label %15, label %27

15:                                               ; preds = %11
  %16 = load i32, i32* %5, align 4
  %17 = sext i32 %16 to i64
  %18 = getelementptr inbounds [100 x [100 x i8]], [100 x [100 x i8]]* %2, i64 0, i64 %17
  %19 = call i32 (i8*, ...) @__isoc99_scanf(i8* getelementptr inbounds ([3 x i8], [3 x i8]* @.str.1, i64 0, i64 0), [100 x i8]* %18)
  %20 = load i32, i32* %5, align 4
  %21 = sext i32 %20 to i64
  %22 = getelementptr inbounds [100 x [100 x i8]], [100 x [100 x i8]]* %3, i64 0, i64 %21
  %23 = call i32 (i8*, ...) @__isoc99_scanf(i8* getelementptr inbounds ([3 x i8], [3 x i8]* @.str.1, i64 0, i64 0), [100 x i8]* %22)
  br label %24

24:                                               ; preds = %15
  %25 = load i32, i32* %5, align 4
  %26 = add nsw i32 %25, 1
  store i32 %26, i32* %5, align 4
  br label %11

27:                                               ; preds = %11
  store i32 0, i32* %5, align 4
  br label %28

28:                                               ; preds = %212, %27
  %29 = load i32, i32* %5, align 4
  %30 = load i32, i32* %6, align 4
  %31 = icmp slt i32 %29, %30
  br i1 %31, label %32, label %224

32:                                               ; preds = %28
  store i32 0, i32* %9, align 4
  %33 = load i32, i32* %5, align 4
  %34 = sext i32 %33 to i64
  %35 = getelementptr inbounds [100 x [100 x i8]], [100 x [100 x i8]]* %2, i64 0, i64 %34
  %36 = getelementptr inbounds [100 x i8], [100 x i8]* %35, i64 0, i64 0
  %37 = call i64 @strlen(i8* %36) #3
  %38 = sub i64 %37, 1
  %39 = trunc i64 %38 to i32
  store i32 %39, i32* %7, align 4
  %40 = load i32, i32* %5, align 4
  %41 = sext i32 %40 to i64
  %42 = getelementptr inbounds [100 x [100 x i8]], [100 x [100 x i8]]* %3, i64 0, i64 %41
  %43 = getelementptr inbounds [100 x i8], [100 x i8]* %42, i64 0, i64 0
  %44 = call i64 @strlen(i8* %43) #3
  %45 = sub i64 %44, 1
  %46 = trunc i64 %45 to i32
  store i32 %46, i32* %8, align 4
  br label %47

47:                                               ; preds = %207, %32
  %48 = load i32, i32* %7, align 4
  %49 = icmp sge i32 %48, 0
  br i1 %49, label %50, label %212

50:                                               ; preds = %47
  %51 = load i32, i32* %7, align 4
  %52 = icmp sge i32 %51, 0
  br i1 %52, label %53, label %101

53:                                               ; preds = %50
  %54 = load i32, i32* %8, align 4
  %55 = icmp sge i32 %54, 0
  br i1 %55, label %56, label %101

56:                                               ; preds = %53
  %57 = load i32, i32* %5, align 4
  %58 = sext i32 %57 to i64
  %59 = getelementptr inbounds [100 x [100 x i8]], [100 x [100 x i8]]* %2, i64 0, i64 %58
  %60 = load i32, i32* %7, align 4
  %61 = sext i32 %60 to i64
  %62 = getelementptr inbounds [100 x i8], [100 x i8]* %59, i64 0, i64 %61
  %63 = load i8, i8* %62, align 1
  %64 = sext i8 %63 to i32
  %65 = load i32, i32* %5, align 4
  %66 = sext i32 %65 to i64
  %67 = getelementptr inbounds [100 x [100 x i8]], [100 x [100 x i8]]* %3, i64 0, i64 %66
  %68 = load i32, i32* %8, align 4
  %69 = sext i32 %68 to i64
  %70 = getelementptr inbounds [100 x i8], [100 x i8]* %67, i64 0, i64 %69
  %71 = load i8, i8* %70, align 1
  %72 = sext i8 %71 to i32
  %73 = icmp sge i32 %64, %72
  br i1 %73, label %74, label %101

74:                                               ; preds = %56
  store i32 0, i32* %9, align 4
  %75 = load i32, i32* %5, align 4
  %76 = sext i32 %75 to i64
  %77 = getelementptr inbounds [100 x [100 x i8]], [100 x [100 x i8]]* %2, i64 0, i64 %76
  %78 = load i32, i32* %7, align 4
  %79 = sext i32 %78 to i64
  %80 = getelementptr inbounds [100 x i8], [100 x i8]* %77, i64 0, i64 %79
  %81 = load i8, i8* %80, align 1
  %82 = sext i8 %81 to i32
  %83 = load i32, i32* %5, align 4
  %84 = sext i32 %83 to i64
  %85 = getelementptr inbounds [100 x [100 x i8]], [100 x [100 x i8]]* %3, i64 0, i64 %84
  %86 = load i32, i32* %8, align 4
  %87 = sext i32 %86 to i64
  %88 = getelementptr inbounds [100 x i8], [100 x i8]* %85, i64 0, i64 %87
  %89 = load i8, i8* %88, align 1
  %90 = sext i8 %89 to i32
  %91 = sub nsw i32 %82, %90
  %92 = load i32, i32* %9, align 4
  %93 = add nsw i32 %91, %92
  %94 = trunc i32 %93 to i8
  %95 = load i32, i32* %5, align 4
  %96 = sext i32 %95 to i64
  %97 = getelementptr inbounds [100 x [101 x i8]], [100 x [101 x i8]]* %4, i64 0, i64 %96
  %98 = load i32, i32* %7, align 4
  %99 = sext i32 %98 to i64
  %100 = getelementptr inbounds [101 x i8], [101 x i8]* %97, i64 0, i64 %99
  store i8 %94, i8* %100, align 1
  br label %196

101:                                              ; preds = %56, %53, %50
  %102 = load i32, i32* %7, align 4
  %103 = icmp sge i32 %102, 0
  br i1 %103, label %104, label %171

104:                                              ; preds = %101
  %105 = load i32, i32* %8, align 4
  %106 = icmp sge i32 %105, 0
  br i1 %106, label %107, label %171

107:                                              ; preds = %104
  %108 = load i32, i32* %5, align 4
  %109 = sext i32 %108 to i64
  %110 = getelementptr inbounds [100 x [100 x i8]], [100 x [100 x i8]]* %2, i64 0, i64 %109
  %111 = load i32, i32* %7, align 4
  %112 = sext i32 %111 to i64
  %113 = getelementptr inbounds [100 x i8], [100 x i8]* %110, i64 0, i64 %112
  %114 = load i8, i8* %113, align 1
  %115 = sext i8 %114 to i32
  %116 = load i32, i32* %5, align 4
  %117 = sext i32 %116 to i64
  %118 = getelementptr inbounds [100 x [100 x i8]], [100 x [100 x i8]]* %3, i64 0, i64 %117
  %119 = load i32, i32* %8, align 4
  %120 = sext i32 %119 to i64
  %121 = getelementptr inbounds [100 x i8], [100 x i8]* %118, i64 0, i64 %120
  %122 = load i8, i8* %121, align 1
  %123 = sext i8 %122 to i32
  %124 = icmp slt i32 %115, %123
  br i1 %124, label %125, label %171

125:                                              ; preds = %107
  store i32 1, i32* %9, align 4
  %126 = load i32, i32* %5, align 4
  %127 = sext i32 %126 to i64
  %128 = getelementptr inbounds [100 x [100 x i8]], [100 x [100 x i8]]* %2, i64 0, i64 %127
  %129 = load i32, i32* %7, align 4
  %130 = sext i32 %129 to i64
  %131 = getelementptr inbounds [100 x i8], [100 x i8]* %128, i64 0, i64 %130
  %132 = load i8, i8* %131, align 1
  %133 = sext i8 %132 to i32
  %134 = load i32, i32* %9, align 4
  %135 = mul nsw i32 %134, 10
  %136 = add nsw i32 %133, %135
  %137 = load i32, i32* %5, align 4
  %138 = sext i32 %137 to i64
  %139 = getelementptr inbounds [100 x [100 x i8]], [100 x [100 x i8]]* %3, i64 0, i64 %138
  %140 = load i32, i32* %8, align 4
  %141 = sext i32 %140 to i64
  %142 = getelementptr inbounds [100 x i8], [100 x i8]* %139, i64 0, i64 %141
  %143 = load i8, i8* %142, align 1
  %144 = sext i8 %143 to i32
  %145 = sub nsw i32 %136, %144
  %146 = trunc i32 %145 to i8
  %147 = load i32, i32* %5, align 4
  %148 = sext i32 %147 to i64
  %149 = getelementptr inbounds [100 x [101 x i8]], [100 x [101 x i8]]* %4, i64 0, i64 %148
  %150 = load i32, i32* %7, align 4
  %151 = sext i32 %150 to i64
  %152 = getelementptr inbounds [101 x i8], [101 x i8]* %149, i64 0, i64 %151
  store i8 %146, i8* %152, align 1
  %153 = load i32, i32* %5, align 4
  %154 = sext i32 %153 to i64
  %155 = getelementptr inbounds [100 x [100 x i8]], [100 x [100 x i8]]* %2, i64 0, i64 %154
  %156 = load i32, i32* %7, align 4
  %157 = sub nsw i32 %156, 1
  %158 = sext i32 %157 to i64
  %159 = getelementptr inbounds [100 x i8], [100 x i8]* %155, i64 0, i64 %158
  %160 = load i8, i8* %159, align 1
  %161 = sext i8 %160 to i32
  %162 = sub nsw i32 %161, 1
  %163 = trunc i32 %162 to i8
  %164 = load i32, i32* %5, align 4
  %165 = sext i32 %164 to i64
  %166 = getelementptr inbounds [100 x [100 x i8]], [100 x [100 x i8]]* %2, i64 0, i64 %165
  %167 = load i32, i32* %7, align 4
  %168 = sub nsw i32 %167, 1
  %169 = sext i32 %168 to i64
  %170 = getelementptr inbounds [100 x i8], [100 x i8]* %166, i64 0, i64 %169
  store i8 %163, i8* %170, align 1
  br label %195

171:                                              ; preds = %107, %104, %101
  %172 = load i32, i32* %7, align 4
  %173 = icmp sge i32 %172, 0
  br i1 %173, label %174, label %194

174:                                              ; preds = %171
  %175 = load i32, i32* %8, align 4
  %176 = icmp slt i32 %175, 0
  br i1 %176, label %177, label %194

177:                                              ; preds = %174
  store i32 0, i32* %9, align 4
  %178 = load i32, i32* %5, align 4
  %179 = sext i32 %178 to i64
  %180 = getelementptr inbounds [100 x [100 x i8]], [100 x [100 x i8]]* %2, i64 0, i64 %179
  %181 = load i32, i32* %7, align 4
  %182 = sext i32 %181 to i64
  %183 = getelementptr inbounds [100 x i8], [100 x i8]* %180, i64 0, i64 %182
  %184 = load i8, i8* %183, align 1
  %185 = sext i8 %184 to i32
  %186 = sub nsw i32 %185, 48
  %187 = trunc i32 %186 to i8
  %188 = load i32, i32* %5, align 4
  %189 = sext i32 %188 to i64
  %190 = getelementptr inbounds [100 x [101 x i8]], [100 x [101 x i8]]* %4, i64 0, i64 %189
  %191 = load i32, i32* %7, align 4
  %192 = sext i32 %191 to i64
  %193 = getelementptr inbounds [101 x i8], [101 x i8]* %190, i64 0, i64 %192
  store i8 %187, i8* %193, align 1
  br label %194

194:                                              ; preds = %177, %174, %171
  br label %195

195:                                              ; preds = %194, %125
  br label %196

196:                                              ; preds = %195, %74
  %197 = load i32, i32* %5, align 4
  %198 = sext i32 %197 to i64
  %199 = getelementptr inbounds [100 x [101 x i8]], [100 x [101 x i8]]* %4, i64 0, i64 %198
  %200 = load i32, i32* %7, align 4
  %201 = sext i32 %200 to i64
  %202 = getelementptr inbounds [101 x i8], [101 x i8]* %199, i64 0, i64 %201
  %203 = load i8, i8* %202, align 1
  %204 = sext i8 %203 to i32
  %205 = add nsw i32 %204, 48
  %206 = trunc i32 %205 to i8
  store i8 %206, i8* %202, align 1
  br label %207

207:                                              ; preds = %196
  %208 = load i32, i32* %7, align 4
  %209 = add nsw i32 %208, -1
  store i32 %209, i32* %7, align 4
  %210 = load i32, i32* %8, align 4
  %211 = add nsw i32 %210, -1
  store i32 %211, i32* %8, align 4
  br label %47

212:                                              ; preds = %47
  %213 = load i32, i32* %5, align 4
  %214 = sext i32 %213 to i64
  %215 = getelementptr inbounds [100 x [101 x i8]], [100 x [101 x i8]]* %4, i64 0, i64 %214
  %216 = load i32, i32* %5, align 4
  %217 = sext i32 %216 to i64
  %218 = getelementptr inbounds [100 x [100 x i8]], [100 x [100 x i8]]* %2, i64 0, i64 %217
  %219 = getelementptr inbounds [100 x i8], [100 x i8]* %218, i64 0, i64 0
  %220 = call i64 @strlen(i8* %219) #3
  %221 = getelementptr inbounds [101 x i8], [101 x i8]* %215, i64 0, i64 %220
  store i8 0, i8* %221, align 1
  %222 = load i32, i32* %5, align 4
  %223 = add nsw i32 %222, 1
  store i32 %223, i32* %5, align 4
  br label %28

224:                                              ; preds = %28
  store i32 0, i32* %5, align 4
  br label %225

225:                                              ; preds = %235, %224
  %226 = load i32, i32* %5, align 4
  %227 = load i32, i32* %6, align 4
  %228 = icmp slt i32 %226, %227
  br i1 %228, label %229, label %238

229:                                              ; preds = %225
  %230 = load i32, i32* %5, align 4
  %231 = sext i32 %230 to i64
  %232 = getelementptr inbounds [100 x [101 x i8]], [100 x [101 x i8]]* %4, i64 0, i64 %231
  %233 = getelementptr inbounds [101 x i8], [101 x i8]* %232, i64 0, i64 0
  %234 = call i32 (i8*, ...) @printf(i8* getelementptr inbounds ([4 x i8], [4 x i8]* @.str.2, i64 0, i64 0), i8* %233)
  br label %235

235:                                              ; preds = %229
  %236 = load i32, i32* %5, align 4
  %237 = add nsw i32 %236, 1
  store i32 %237, i32* %5, align 4
  br label %225

238:                                              ; preds = %225
  ret i32 0
}

declare dso_local i32 @__isoc99_scanf(i8*, ...) #1

; Function Attrs: nounwind readonly
declare dso_local i64 @strlen(i8*) #2

declare dso_local i32 @printf(i8*, ...) #1


!llvm.module.flags = !{!0}
!llvm.ident = !{!1}

!0 = !{i32 1, !"wchar_size", i32 4}
!1 = !{!"clang version 10.0.0-4ubuntu1 "}
