; ModuleID = 'source-C-CXX/31/2026.c'
source_filename = "source-C-CXX/31/2026.c"
target datalayout = "e-m:e-p270:32:32-p271:32:32-p272:64:64-i64:64-f80:128-n8:16:32:64-S128"
target triple = "x86_64-pc-linux-gnu"

@.str = private unnamed_addr constant [3 x i8] c"%d\00", align 1
@.str.1 = private unnamed_addr constant [3 x i8] c"%s\00", align 1

; Function Attrs: nofree nounwind sspstrong uwtable
define dso_local i32 @main() local_unnamed_addr #0 {
  %1 = alloca [100 x [100 x i8]], align 16
  %2 = alloca [100 x [100 x i8]], align 16
  %3 = alloca [100 x [101 x i8]], align 16
  %4 = alloca i32, align 4
  %5 = getelementptr inbounds [100 x [100 x i8]], [100 x [100 x i8]]* %1, i64 0, i64 0, i64 0
  call void @llvm.lifetime.start.p0i8(i64 10000, i8* nonnull %5) #5
  %6 = getelementptr inbounds [100 x [100 x i8]], [100 x [100 x i8]]* %2, i64 0, i64 0, i64 0
  call void @llvm.lifetime.start.p0i8(i64 10000, i8* nonnull %6) #5
  %7 = getelementptr inbounds [100 x [101 x i8]], [100 x [101 x i8]]* %3, i64 0, i64 0, i64 0
  call void @llvm.lifetime.start.p0i8(i64 10100, i8* nonnull %7) #5
  %8 = bitcast i32* %4 to i8*
  call void @llvm.lifetime.start.p0i8(i64 4, i8* nonnull %8) #5
  %9 = call i32 (i8*, ...) @__isoc99_scanf(i8* getelementptr inbounds ([3 x i8], [3 x i8]* @.str, i64 0, i64 0), i32* nonnull %4)
  %10 = load i32, i32* %4, align 4, !tbaa !5
  %11 = icmp sgt i32 %10, 0
  br i1 %11, label %16, label %86

12:                                               ; preds = %16
  %13 = icmp sgt i32 %23, 0
  br i1 %13, label %14, label %86

14:                                               ; preds = %12
  %15 = zext i32 %23 to i64
  br label %27

16:                                               ; preds = %0, %16
  %17 = phi i64 [ %22, %16 ], [ 0, %0 ]
  %18 = getelementptr inbounds [100 x [100 x i8]], [100 x [100 x i8]]* %1, i64 0, i64 %17
  %19 = call i32 (i8*, ...) @__isoc99_scanf(i8* getelementptr inbounds ([3 x i8], [3 x i8]* @.str.1, i64 0, i64 0), [100 x i8]* nonnull %18)
  %20 = getelementptr inbounds [100 x [100 x i8]], [100 x [100 x i8]]* %2, i64 0, i64 %17
  %21 = call i32 (i8*, ...) @__isoc99_scanf(i8* getelementptr inbounds ([3 x i8], [3 x i8]* @.str.1, i64 0, i64 0), [100 x i8]* nonnull %20)
  %22 = add nuw nsw i64 %17, 1
  %23 = load i32, i32* %4, align 4, !tbaa !5
  %24 = sext i32 %23 to i64
  %25 = icmp slt i64 %22, %24
  br i1 %25, label %16, label %12, !llvm.loop !9

26:                                               ; preds = %73
  br i1 %13, label %78, label %86

27:                                               ; preds = %14, %73
  %28 = phi i64 [ 0, %14 ], [ %76, %73 ]
  %29 = getelementptr inbounds [100 x [100 x i8]], [100 x [100 x i8]]* %1, i64 0, i64 %28, i64 0
  %30 = call i64 @strlen(i8* noundef nonnull %29) #6
  %31 = trunc i64 %30 to i32
  %32 = add i32 %31, -1
  %33 = icmp sgt i32 %32, -1
  br i1 %33, label %34, label %73

34:                                               ; preds = %27
  %35 = getelementptr inbounds [100 x [100 x i8]], [100 x [100 x i8]]* %2, i64 0, i64 %28, i64 0
  %36 = call i64 @strlen(i8* noundef nonnull %35) #6
  %37 = trunc i64 %36 to i32
  br label %38

38:                                               ; preds = %34, %67
  %39 = phi i32 [ %71, %67 ], [ %32, %34 ]
  %40 = phi i32 [ %42, %67 ], [ %37, %34 ]
  %41 = phi i32 [ %39, %67 ], [ %31, %34 ]
  %42 = add i32 %40, -1
  %43 = icmp sgt i32 %42, -1
  %44 = zext i32 %39 to i64
  %45 = getelementptr inbounds [100 x [100 x i8]], [100 x [100 x i8]]* %1, i64 0, i64 %28, i64 %44
  %46 = load i8, i8* %45, align 1, !tbaa !11
  br i1 %43, label %47, label %64

47:                                               ; preds = %38
  %48 = zext i32 %42 to i64
  %49 = getelementptr inbounds [100 x [100 x i8]], [100 x [100 x i8]]* %2, i64 0, i64 %28, i64 %48
  %50 = load i8, i8* %49, align 1, !tbaa !11
  %51 = icmp slt i8 %46, %50
  br i1 %51, label %55, label %52

52:                                               ; preds = %47
  %53 = sub i8 %46, %50
  %54 = getelementptr inbounds [100 x [101 x i8]], [100 x [101 x i8]]* %3, i64 0, i64 %28, i64 %44
  store i8 %53, i8* %54, align 1, !tbaa !11
  br label %67

55:                                               ; preds = %47
  %56 = add i8 %46, 10
  %57 = sub i8 %56, %50
  %58 = getelementptr inbounds [100 x [101 x i8]], [100 x [101 x i8]]* %3, i64 0, i64 %28, i64 %44
  store i8 %57, i8* %58, align 1, !tbaa !11
  %59 = add i32 %41, -2
  %60 = sext i32 %59 to i64
  %61 = getelementptr inbounds [100 x [100 x i8]], [100 x [100 x i8]]* %1, i64 0, i64 %28, i64 %60
  %62 = load i8, i8* %61, align 1, !tbaa !11
  %63 = add i8 %62, -1
  store i8 %63, i8* %61, align 1, !tbaa !11
  br label %67

64:                                               ; preds = %38
  %65 = add i8 %46, -48
  %66 = getelementptr inbounds [100 x [101 x i8]], [100 x [101 x i8]]* %3, i64 0, i64 %28, i64 %44
  store i8 %65, i8* %66, align 1, !tbaa !11
  br label %67

67:                                               ; preds = %55, %64, %52
  %68 = phi i8 [ %57, %55 ], [ %65, %64 ], [ %53, %52 ]
  %69 = getelementptr inbounds [100 x [101 x i8]], [100 x [101 x i8]]* %3, i64 0, i64 %28, i64 %44
  %70 = add i8 %68, 48
  store i8 %70, i8* %69, align 1, !tbaa !11
  %71 = add i32 %39, -1
  %72 = icmp sgt i32 %71, -1
  br i1 %72, label %38, label %73, !llvm.loop !12

73:                                               ; preds = %67, %27
  %74 = call i64 @strlen(i8* noundef nonnull %29) #6
  %75 = getelementptr inbounds [100 x [101 x i8]], [100 x [101 x i8]]* %3, i64 0, i64 %28, i64 %74
  store i8 0, i8* %75, align 1, !tbaa !11
  %76 = add nuw nsw i64 %28, 1
  %77 = icmp eq i64 %76, %15
  br i1 %77, label %26, label %27, !llvm.loop !13

78:                                               ; preds = %26, %78
  %79 = phi i64 [ %82, %78 ], [ 0, %26 ]
  %80 = getelementptr inbounds [100 x [101 x i8]], [100 x [101 x i8]]* %3, i64 0, i64 %79, i64 0
  %81 = call i32 @puts(i8* nonnull %80)
  %82 = add nuw nsw i64 %79, 1
  %83 = load i32, i32* %4, align 4, !tbaa !5
  %84 = sext i32 %83 to i64
  %85 = icmp slt i64 %82, %84
  br i1 %85, label %78, label %86, !llvm.loop !14

86:                                               ; preds = %78, %12, %0, %26
  call void @llvm.lifetime.end.p0i8(i64 4, i8* nonnull %8) #5
  call void @llvm.lifetime.end.p0i8(i64 10100, i8* nonnull %7) #5
  call void @llvm.lifetime.end.p0i8(i64 10000, i8* nonnull %6) #5
  call void @llvm.lifetime.end.p0i8(i64 10000, i8* nonnull %5) #5
  ret i32 0
}

; Function Attrs: argmemonly mustprogress nofree nosync nounwind willreturn
declare void @llvm.lifetime.start.p0i8(i64 immarg, i8* nocapture) #1

; Function Attrs: nofree nounwind
declare noundef i32 @__isoc99_scanf(i8* nocapture noundef readonly, ...) local_unnamed_addr #2

; Function Attrs: argmemonly mustprogress nofree nounwind readonly willreturn
declare i64 @strlen(i8* nocapture) local_unnamed_addr #3

; Function Attrs: argmemonly mustprogress nofree nosync nounwind willreturn
declare void @llvm.lifetime.end.p0i8(i64 immarg, i8* nocapture) #1

; Function Attrs: nofree nounwind
declare noundef i32 @puts(i8* nocapture noundef readonly) local_unnamed_addr #4


!llvm.module.flags = !{!0, !1, !2, !3}
!llvm.ident = !{!4}

!0 = !{i32 1, !"wchar_size", i32 4}
!1 = !{i32 7, !"PIC Level", i32 2}
!2 = !{i32 7, !"PIE Level", i32 2}
!3 = !{i32 7, !"uwtable", i32 1}
!4 = !{!"clang version 13.0.0"}
!5 = !{!6, !6, i64 0}
!6 = !{!"int", !7, i64 0}
!7 = !{!"omnipotent char", !8, i64 0}
!8 = !{!"Simple C/C++ TBAA"}
!9 = distinct !{!9, !10}
!10 = !{!"llvm.loop.mustprogress"}
!11 = !{!7, !7, i64 0}
!12 = distinct !{!12, !10}
!13 = distinct !{!13, !10}
!14 = distinct !{!14, !10}
